target datalayout = "e-m:e-p270:32:32-p271:32:32-p272:64:64-i64:64-i128:128-f80:128-n8:16:32:64-S128"
target triple = "x86_64-unknown-linux-gnu"

%"class.Assimp::BVHLoader" = type <{ %"class.Assimp::BaseImporter", %"class.std::__cxx11::basic_string", %"class.std::vector.3", %"class.__gnu_cxx::__normal_iterator", i32, [4 x i8], %"class.std::vector.5", float, i32, i8, [7 x i8] }>
%"class.Assimp::BaseImporter" = type { ptr, double, double, %"class.std::__cxx11::basic_string", %"class.std::__exception_ptr::exception_ptr", ptr }
%"class.std::__exception_ptr::exception_ptr" = type { ptr }
%"class.std::__cxx11::basic_string" = type { %"struct.std::__cxx11::basic_string<char>::_Alloc_hider", i64, %union.anon }
%"struct.std::__cxx11::basic_string<char>::_Alloc_hider" = type { ptr }
%union.anon = type { i64, [8 x i8] }
%"class.std::vector.3" = type { %"struct.std::_Vector_base.4" }
%"struct.std::_Vector_base.4" = type { %"struct.std::_Vector_base<char, std::allocator<char>>::_Vector_impl" }
%"struct.std::_Vector_base<char, std::allocator<char>>::_Vector_impl" = type { %"struct.std::_Vector_base<char, std::allocator<char>>::_Vector_impl_data" }
%"struct.std::_Vector_base<char, std::allocator<char>>::_Vector_impl_data" = type { ptr, ptr, ptr }
%"class.__gnu_cxx::__normal_iterator" = type { ptr }
%"class.std::vector.5" = type { %"struct.std::_Vector_base.6" }
%"struct.std::_Vector_base.6" = type { %"struct.std::_Vector_base<Assimp::BVHLoader::Node, std::allocator<Assimp::BVHLoader::Node>>::_Vector_impl" }
%"struct.std::_Vector_base<Assimp::BVHLoader::Node, std::allocator<Assimp::BVHLoader::Node>>::_Vector_impl" = type { %"struct.std::_Vector_base<Assimp::BVHLoader::Node, std::allocator<Assimp::BVHLoader::Node>>::_Vector_impl_data" }
%"struct.std::_Vector_base<Assimp::BVHLoader::Node, std::allocator<Assimp::BVHLoader::Node>>::_Vector_impl_data" = type { ptr, ptr, ptr }
%"class.__gnu_cxx::__normal_iterator.13" = type { ptr }

@.str.11 = private unnamed_addr constant [2 x i8] c"{\00", align 1
@.str.22 = private unnamed_addr constant [2 x i8] c"}\00", align 1

; Function Attrs: mustprogress nounwind uwtable
define linkonce_odr noundef nonnull align 8 dereferenceable(8) ptr @_ZNK9__gnu_cxx17__normal_iteratorIPcSt6vectorIcSaIcEEE4baseEv(ptr noundef nonnull align 8 dereferenceable(8) %this) #0 comdat align 2 {
entry:
  %this.addr = alloca ptr, align 8
  store ptr %this, ptr %this.addr, align 8
  %this1 = load ptr, ptr %this.addr, align 8
  %_M_current = getelementptr inbounds %"class.__gnu_cxx::__normal_iterator.13", ptr %this1, i32 0, i32 0
  ret ptr %_M_current
}

; Function Attrs: mustprogress nounwind uwtable
define linkonce_odr noundef nonnull align 8 dereferenceable(8) ptr @_ZNK9__gnu_cxx17__normal_iteratorIPKcSt6vectorIcSaIcEEE4baseEv(ptr noundef nonnull align 8 dereferenceable(8) %this) #0 comdat align 2 {
entry:
  %this.addr = alloca ptr, align 8
  store ptr %this, ptr %this.addr, align 8
  %this1 = load ptr, ptr %this.addr, align 8
  %_M_current = getelementptr inbounds %"class.__gnu_cxx::__normal_iterator", ptr %this1, i32 0, i32 0
  ret ptr %_M_current
}

; Function Attrs: mustprogress nounwind uwtable
define linkonce_odr void @_ZN9__gnu_cxx17__normal_iteratorIPcSt6vectorIcSaIcEEEC2ERKS1_(ptr noundef nonnull align 8 dereferenceable(8) %this, ptr noundef nonnull align 8 dereferenceable(8) %__i) unnamed_addr #0 comdat align 2 {
entry:
  %this.addr = alloca ptr, align 8
  %__i.addr = alloca ptr, align 8
  store ptr %this, ptr %this.addr, align 8
  store ptr %__i, ptr %__i.addr, align 8
  %this1 = load ptr, ptr %this.addr, align 8
  %_M_current = getelementptr inbounds %"class.__gnu_cxx::__normal_iterator.13", ptr %this1, i32 0, i32 0
  %0 = load ptr, ptr %__i.addr, align 8
  %1 = load ptr, ptr %0, align 8
  store ptr %1, ptr %_M_current, align 8
  ret void
}

; Function Attrs: mustprogress nounwind uwtable
define linkonce_odr noundef zeroext i1 @_ZSteqIcSt11char_traitsIcESaIcEEbRKNSt7__cxx1112basic_stringIT_T0_T1_EEPKS5_(ptr noundef nonnull align 8 dereferenceable(32) %__lhs, ptr noundef %__rhs) #0 comdat {
entry:
  %__lhs.addr = alloca ptr, align 8
  %__rhs.addr = alloca ptr, align 8
  store ptr %__lhs, ptr %__lhs.addr, align 8
  store ptr %__rhs, ptr %__rhs.addr, align 8
  %0 = load ptr, ptr %__lhs.addr, align 8
  %1 = load ptr, ptr %__rhs.addr, align 8
  %call = call noundef i32 @_ZNKSt7__cxx1112basic_stringIcSt11char_traitsIcESaIcEE7compareEPKc(ptr noundef nonnull align 8 dereferenceable(32) %0, ptr noundef %1) #15
  %cmp = icmp eq i32 %call, 0
  ret i1 %cmp
}

; Function Attrs: mustprogress nounwind uwtable
define linkonce_odr noundef nonnull align 8 dereferenceable(8) ptr @_ZN9__gnu_cxx17__normal_iteratorIPKcSt6vectorIcSaIcEEEppEv(ptr noundef nonnull align 8 dereferenceable(8) %this) #0 comdat align 2 {
entry:
  %this.addr = alloca ptr, align 8
  store ptr %this, ptr %this.addr, align 8
  %this1 = load ptr, ptr %this.addr, align 8
  %_M_current = getelementptr inbounds %"class.__gnu_cxx::__normal_iterator", ptr %this1, i32 0, i32 0
  %0 = load ptr, ptr %_M_current, align 8
  %incdec.ptr = getelementptr inbounds i8, ptr %0, i32 1
  store ptr %incdec.ptr, ptr %_M_current, align 8
  ret ptr %this1
}

; Function Attrs: mustprogress nounwind uwtable
define linkonce_odr noundef nonnull align 1 dereferenceable(1) ptr @_ZNK9__gnu_cxx17__normal_iteratorIPKcSt6vectorIcSaIcEEEdeEv(ptr noundef nonnull align 8 dereferenceable(8) %this) #0 comdat align 2 {
entry:
  %this.addr = alloca ptr, align 8
  store ptr %this, ptr %this.addr, align 8
  %this1 = load ptr, ptr %this.addr, align 8
  %_M_current = getelementptr inbounds %"class.__gnu_cxx::__normal_iterator", ptr %this1, i32 0, i32 0
  %0 = load ptr, ptr %_M_current, align 8
  ret ptr %0
}

; Function Attrs: mustprogress nounwind uwtable
define linkonce_odr noundef zeroext i1 @_ZN9__gnu_cxxneIPKcPcSt6vectorIcSaIcEEEEbRKNS_17__normal_iteratorIT_T1_EERKNS7_IT0_S9_EE(ptr noundef nonnull align 8 dereferenceable(8) %__lhs, ptr noundef nonnull align 8 dereferenceable(8) %__rhs) #0 comdat {
entry:
  %__lhs.addr = alloca ptr, align 8
  %__rhs.addr = alloca ptr, align 8
  store ptr %__lhs, ptr %__lhs.addr, align 8
  store ptr %__rhs, ptr %__rhs.addr, align 8
  %0 = load ptr, ptr %__lhs.addr, align 8
  %call = call noundef nonnull align 8 dereferenceable(8) ptr @_ZNK9__gnu_cxx17__normal_iteratorIPKcSt6vectorIcSaIcEEE4baseEv(ptr noundef nonnull align 8 dereferenceable(8) %0) #15
  %1 = load ptr, ptr %call, align 8
  %2 = load ptr, ptr %__rhs.addr, align 8
  %call1 = call noundef nonnull align 8 dereferenceable(8) ptr @_ZNK9__gnu_cxx17__normal_iteratorIPcSt6vectorIcSaIcEEE4baseEv(ptr noundef nonnull align 8 dereferenceable(8) %2) #15
  %3 = load ptr, ptr %call1, align 8
  %cmp = icmp ne ptr %1, %3
  ret i1 %cmp
}

; Function Attrs: mustprogress nounwind uwtable
define linkonce_odr ptr @_ZNSt6vectorIcSaIcEE3endEv(ptr noundef nonnull align 8 dereferenceable(24) %this) #0 comdat align 2 {
entry:
  %retval = alloca %"class.__gnu_cxx::__normal_iterator.13", align 8
  %this.addr = alloca ptr, align 8
  store ptr %this, ptr %this.addr, align 8
  %this1 = load ptr, ptr %this.addr, align 8
  %_M_impl = getelementptr inbounds %"struct.std::_Vector_base.4", ptr %this1, i32 0, i32 0
  %_M_finish = getelementptr inbounds %"struct.std::_Vector_base<char, std::allocator<char>>::_Vector_impl_data", ptr %_M_impl, i32 0, i32 1
  call void @_ZN9__gnu_cxx17__normal_iteratorIPcSt6vectorIcSaIcEEEC2ERKS1_(ptr noundef nonnull align 8 dereferenceable(8) %retval, ptr noundef nonnull align 8 dereferenceable(8) %_M_finish) #15
  %coerce.dive = getelementptr inbounds %"class.__gnu_cxx::__normal_iterator.13", ptr %retval, i32 0, i32 0
  %0 = load ptr, ptr %coerce.dive, align 8
  ret ptr %0
}

; Function Attrs: mustprogress uwtable
define hidden void @_ZN6Assimp9BVHLoader12GetNextTokenB5cxx11Ev(ptr noalias sret(%"class.std::__cxx11::basic_string") align 8 %agg.result, ptr noundef nonnull align 8 dereferenceable(177) %this) #4 align 2 personality ptr @__gxx_personality_v0 {
entry:
  %result.ptr = alloca ptr, align 8
  %this.addr = alloca ptr, align 8
  %ref.tmp = alloca %"class.__gnu_cxx::__normal_iterator.13", align 8
  %nrvo = alloca i1, align 1
  %ref.tmp15 = alloca %"class.__gnu_cxx::__normal_iterator.13", align 8
  %exn.slot = alloca ptr, align 8
  %ehselector.slot = alloca i32, align 4
  store ptr %agg.result, ptr %result.ptr, align 8
  store ptr %this, ptr %this.addr, align 8
  %this1 = load ptr, ptr %this.addr, align 8
  br label %while.cond

while.cond:                                       ; preds = %if.end10, %entry
  %mReader = getelementptr inbounds %"class.Assimp::BVHLoader", ptr %this1, i32 0, i32 3
  %mBuffer = getelementptr inbounds %"class.Assimp::BVHLoader", ptr %this1, i32 0, i32 2
  %call = call ptr @_ZNSt6vectorIcSaIcEE3endEv(ptr noundef nonnull align 8 dereferenceable(24) %mBuffer) #15
  %coerce.dive = getelementptr inbounds %"class.__gnu_cxx::__normal_iterator.13", ptr %ref.tmp, i32 0, i32 0
  store ptr %call, ptr %coerce.dive, align 8
  %call2 = call noundef zeroext i1 @_ZN9__gnu_cxxneIPKcPcSt6vectorIcSaIcEEEEbRKNS_17__normal_iteratorIT_T1_EERKNS7_IT0_S9_EE(ptr noundef nonnull align 8 dereferenceable(8) %mReader, ptr noundef nonnull align 8 dereferenceable(8) %ref.tmp) #15
  br i1 %call2, label %while.body, label %while.end

while.body:                                       ; preds = %while.cond
  %mReader3 = getelementptr inbounds %"class.Assimp::BVHLoader", ptr %this1, i32 0, i32 3
  %call4 = call noundef nonnull align 1 dereferenceable(1) ptr @_ZNK9__gnu_cxx17__normal_iteratorIPKcSt6vectorIcSaIcEEEdeEv(ptr noundef nonnull align 8 dereferenceable(8) %mReader3) #15
  %0 = load i8, ptr %call4, align 1
  %conv = zext i8 %0 to i32
  %call5 = call i32 @isspace(i32 noundef %conv) #19
  %tobool = icmp ne i32 %call5, 0
  br i1 %tobool, label %if.end, label %if.then

if.then:                                          ; preds = %while.body
  br label %while.end

if.end:                                           ; preds = %while.body
  %mReader6 = getelementptr inbounds %"class.Assimp::BVHLoader", ptr %this1, i32 0, i32 3
  %call7 = call noundef nonnull align 1 dereferenceable(1) ptr @_ZNK9__gnu_cxx17__normal_iteratorIPKcSt6vectorIcSaIcEEEdeEv(ptr noundef nonnull align 8 dereferenceable(8) %mReader6) #15
  %1 = load i8, ptr %call7, align 1
  %conv8 = sext i8 %1 to i32
  %cmp = icmp eq i32 %conv8, 10
  br i1 %cmp, label %if.then9, label %if.end10

if.then9:                                         ; preds = %if.end
  %mLine = getelementptr inbounds %"class.Assimp::BVHLoader", ptr %this1, i32 0, i32 4
  %2 = load i32, ptr %mLine, align 8
  %inc = add i32 %2, 1
  store i32 %inc, ptr %mLine, align 8
  br label %if.end10

if.end10:                                         ; preds = %if.then9, %if.end
  %mReader11 = getelementptr inbounds %"class.Assimp::BVHLoader", ptr %this1, i32 0, i32 3
  %call12 = call noundef nonnull align 8 dereferenceable(8) ptr @_ZN9__gnu_cxx17__normal_iteratorIPKcSt6vectorIcSaIcEEEppEv(ptr noundef nonnull align 8 dereferenceable(8) %mReader11) #15
  br label %while.cond, !llvm.loop !12

while.end:                                        ; preds = %if.then, %while.cond
  store i1 false, ptr %nrvo, align 1
  call void @_ZNSt7__cxx1112basic_stringIcSt11char_traitsIcESaIcEEC1Ev(ptr noundef nonnull align 8 dereferenceable(32) %agg.result) #15
  br label %while.cond13

while.cond13:                                     ; preds = %if.end37, %while.end
  %mReader14 = getelementptr inbounds %"class.Assimp::BVHLoader", ptr %this1, i32 0, i32 3
  %mBuffer16 = getelementptr inbounds %"class.Assimp::BVHLoader", ptr %this1, i32 0, i32 2
  %call17 = call ptr @_ZNSt6vectorIcSaIcEE3endEv(ptr noundef nonnull align 8 dereferenceable(24) %mBuffer16) #15
  %coerce.dive18 = getelementptr inbounds %"class.__gnu_cxx::__normal_iterator.13", ptr %ref.tmp15, i32 0, i32 0
  store ptr %call17, ptr %coerce.dive18, align 8
  %call19 = call noundef zeroext i1 @_ZN9__gnu_cxxneIPKcPcSt6vectorIcSaIcEEEEbRKNS_17__normal_iteratorIT_T1_EERKNS7_IT0_S9_EE(ptr noundef nonnull align 8 dereferenceable(8) %mReader14, ptr noundef nonnull align 8 dereferenceable(8) %ref.tmp15) #15
  br i1 %call19, label %while.body20, label %while.end38

while.body20:                                     ; preds = %while.cond13
  %mReader21 = getelementptr inbounds %"class.Assimp::BVHLoader", ptr %this1, i32 0, i32 3
  %call22 = call noundef nonnull align 1 dereferenceable(1) ptr @_ZNK9__gnu_cxx17__normal_iteratorIPKcSt6vectorIcSaIcEEEdeEv(ptr noundef nonnull align 8 dereferenceable(8) %mReader21) #15
  %3 = load i8, ptr %call22, align 1
  %conv23 = zext i8 %3 to i32
  %call24 = call i32 @isspace(i32 noundef %conv23) #19
  %tobool25 = icmp ne i32 %call24, 0
  br i1 %tobool25, label %if.then26, label %if.end27

if.then26:                                        ; preds = %while.body20
  br label %while.end38

if.end27:                                         ; preds = %while.body20
  %mReader28 = getelementptr inbounds %"class.Assimp::BVHLoader", ptr %this1, i32 0, i32 3
  %call29 = call noundef nonnull align 1 dereferenceable(1) ptr @_ZNK9__gnu_cxx17__normal_iteratorIPKcSt6vectorIcSaIcEEEdeEv(ptr noundef nonnull align 8 dereferenceable(8) %mReader28) #15
  %4 = load i8, ptr %call29, align 1
  invoke void @_ZNSt7__cxx1112basic_stringIcSt11char_traitsIcESaIcEE9push_backEc(ptr noundef nonnull align 8 dereferenceable(32) %agg.result, i8 noundef signext %4)
          to label %invoke.cont unwind label %lpad

invoke.cont:                                      ; preds = %if.end27
  %mReader30 = getelementptr inbounds %"class.Assimp::BVHLoader", ptr %this1, i32 0, i32 3
  %call31 = call noundef nonnull align 8 dereferenceable(8) ptr @_ZN9__gnu_cxx17__normal_iteratorIPKcSt6vectorIcSaIcEEEppEv(ptr noundef nonnull align 8 dereferenceable(8) %mReader30) #15
  %call33 = invoke noundef zeroext i1 @_ZSteqIcSt11char_traitsIcESaIcEEbRKNSt7__cxx1112basic_stringIT_T0_T1_EEPKS5_(ptr noundef nonnull align 8 dereferenceable(32) %agg.result, ptr noundef @.str.11)
          to label %invoke.cont32 unwind label %lpad

invoke.cont32:                                    ; preds = %invoke.cont
  br i1 %call33, label %if.then36, label %lor.lhs.false

lor.lhs.false:                                    ; preds = %invoke.cont32
  %call35 = invoke noundef zeroext i1 @_ZSteqIcSt11char_traitsIcESaIcEEbRKNSt7__cxx1112basic_stringIT_T0_T1_EEPKS5_(ptr noundef nonnull align 8 dereferenceable(32) %agg.result, ptr noundef @.str.22)
          to label %invoke.cont34 unwind label %lpad

invoke.cont34:                                    ; preds = %lor.lhs.false
  br i1 %call35, label %if.then36, label %if.end37

if.then36:                                        ; preds = %invoke.cont34, %invoke.cont32
  br label %while.end38

lpad:                                             ; preds = %lor.lhs.false, %invoke.cont, %if.end27
  %5 = landingpad { ptr, i32 }
          cleanup
  %6 = extractvalue { ptr, i32 } %5, 0
  store ptr %6, ptr %exn.slot, align 8
  %7 = extractvalue { ptr, i32 } %5, 1
  store i32 %7, ptr %ehselector.slot, align 4
  call void @_ZNSt7__cxx1112basic_stringIcSt11char_traitsIcESaIcEED1Ev(ptr noundef nonnull align 8 dereferenceable(32) %agg.result) #15
  br label %eh.resume

if.end37:                                         ; preds = %invoke.cont34
  br label %while.cond13, !llvm.loop !13

while.end38:                                      ; preds = %if.then36, %if.then26, %while.cond13
  store i1 true, ptr %nrvo, align 1
  %nrvo.val = load i1, ptr %nrvo, align 1
  br i1 %nrvo.val, label %nrvo.skipdtor, label %nrvo.unused

nrvo.unused:                                      ; preds = %while.end38
  call void @_ZNSt7__cxx1112basic_stringIcSt11char_traitsIcESaIcEED1Ev(ptr noundef nonnull align 8 dereferenceable(32) %agg.result) #15
  br label %nrvo.skipdtor

nrvo.skipdtor:                                    ; preds = %nrvo.unused, %while.end38
  ret void

eh.resume:                                        ; preds = %lpad
  %exn = load ptr, ptr %exn.slot, align 8
  %sel = load i32, ptr %ehselector.slot, align 4
  %lpad.val = insertvalue { ptr, i32 } poison, ptr %exn, 0
  %lpad.val39 = insertvalue { ptr, i32 } %lpad.val, i32 %sel, 1
  resume { ptr, i32 } %lpad.val39
}