; Function Attrs: mustprogress uwtable
define hidden void @_ZN6Assimp9BVHLoader12GetNextTokenB5cxx11Ev(ptr noalias sret(%"class.std::__cxx11::basic_string") align 8 %agg.result, ptr nocapture noundef nonnull align 8 dereferenceable(177) %this) local_unnamed_addr #3 align 2 personality ptr @__gxx_personality_v0 {
entry:
  %mReader = getelementptr inbounds i8, ptr %this, i64 128
  %_M_finish.i = getelementptr inbounds i8, ptr %this, i64 112
  %0 = load ptr, ptr %_M_finish.i, align 8
  %mReader.promoted = load ptr, ptr %mReader, align 8
  %cmp.i.not8 = icmp eq ptr %mReader.promoted, %0
  br i1 %cmp.i.not8, label %while.end, label %while.body.lr.ph

while.body.lr.ph:                                 ; preds = %entry
  %mLine = getelementptr inbounds i8, ptr %this, i64 136
  %mLine.promoted = load i32, ptr %mLine, align 8
  br label %while.body

while.body:                                       ; preds = %while.body.lr.ph, %if.end10
  %1 = phi i32 [ %mLine.promoted, %while.body.lr.ph ], [ %3, %if.end10 ]
  %incdec.ptr.i79 = phi ptr [ %mReader.promoted, %while.body.lr.ph ], [ %incdec.ptr.i, %if.end10 ]
  %2 = load i8, ptr %incdec.ptr.i79, align 1
  %conv = zext i8 %2 to i32
  %call5 = tail call i32 @isspace(i32 noundef %conv) #25
  %tobool.not = icmp eq i32 %call5, 0
  br i1 %tobool.not, label %while.end, label %if.end

if.end:                                           ; preds = %while.body
  %cmp = icmp eq i8 %2, 10
  br i1 %cmp, label %if.then9, label %if.end10

if.then9:                                         ; preds = %if.end
  %inc = add i32 %1, 1
  store i32 %inc, ptr %mLine, align 8
  br label %if.end10

if.end10:                                         ; preds = %if.then9, %if.end
  %3 = phi i32 [ %inc, %if.then9 ], [ %1, %if.end ]
  %incdec.ptr.i = getelementptr inbounds i8, ptr %incdec.ptr.i79, i64 1
  store ptr %incdec.ptr.i, ptr %mReader, align 8
  %cmp.i.not = icmp eq ptr %incdec.ptr.i, %0
  br i1 %cmp.i.not, label %while.end, label %while.body, !llvm.loop !13

while.end:                                        ; preds = %if.end10, %while.body, %entry
  tail call void @_ZNSt7__cxx1112basic_stringIcSt11char_traitsIcESaIcEEC1Ev(ptr noundef nonnull align 8 dereferenceable(32) %agg.result) #20
  br label %while.cond13

while.cond13:                                     ; preds = %lor.lhs.false, %while.end
  %4 = load ptr, ptr %_M_finish.i, align 8
  %5 = load ptr, ptr %mReader, align 8
  %cmp.i2.not = icmp eq ptr %5, %4
  br i1 %cmp.i2.not, label %nrvo.skipdtor, label %while.body20

while.body20:                                     ; preds = %while.cond13
  %6 = load i8, ptr %5, align 1
  %conv23 = zext i8 %6 to i32
  %call24 = tail call i32 @isspace(i32 noundef %conv23) #25
  %tobool25.not = icmp eq i32 %call24, 0
  br i1 %tobool25.not, label %if.end27, label %nrvo.skipdtor

if.end27:                                         ; preds = %while.body20
  invoke void @_ZNSt7__cxx1112basic_stringIcSt11char_traitsIcESaIcEE9push_backEc(ptr noundef nonnull align 8 dereferenceable(32) %agg.result, i8 noundef signext %6)
          to label %invoke.cont unwind label %lpad

invoke.cont:                                      ; preds = %if.end27
  %7 = load ptr, ptr %mReader, align 8
  %incdec.ptr.i3 = getelementptr inbounds i8, ptr %7, i64 1
  store ptr %incdec.ptr.i3, ptr %mReader, align 8
  %call.i = tail call noundef i32 @_ZNKSt7__cxx1112basic_stringIcSt11char_traitsIcESaIcEE7compareEPKc(ptr noundef nonnull align 8 dereferenceable(32) %agg.result, ptr noundef nonnull @.str.11) #20
  %cmp.i4 = icmp eq i32 %call.i, 0
  br i1 %cmp.i4, label %nrvo.skipdtor, label %lor.lhs.false

lor.lhs.false:                                    ; preds = %invoke.cont
  %call.i5 = tail call noundef i32 @_ZNKSt7__cxx1112basic_stringIcSt11char_traitsIcESaIcEE7compareEPKc(ptr noundef nonnull align 8 dereferenceable(32) %agg.result, ptr noundef nonnull @.str.22) #20
  %cmp.i6 = icmp eq i32 %call.i5, 0
  br i1 %cmp.i6, label %nrvo.skipdtor, label %while.cond13, !llvm.loop !14

lpad:                                             ; preds = %if.end27
  %8 = landingpad { ptr, i32 }
          cleanup
  tail call void @_ZNSt7__cxx1112basic_stringIcSt11char_traitsIcESaIcEED1Ev(ptr noundef nonnull align 8 dereferenceable(32) %agg.result) #20
  resume { ptr, i32 } %8

nrvo.skipdtor:                                    ; preds = %while.cond13, %while.body20, %lor.lhs.false, %invoke.cont
  ret void
}